target datalayout = "e-m:e-p270:32:32-p271:32:32-p272:64:64-i64:64-i128:128-f80:128-n8:16:32:64-S128"
target triple = "x86_64-pc-linux-gnu"

%struct.expert_field = type { i32, i32 }
%struct.block_data_arg = type { ptr, ptr, ptr }
%struct.info = type { i32, i32, i32, i32, i32, i32, ptr, ptr }

@hf_pcapng_section_header_byte_order_magic = internal global i32 0, align 4
@hf_pcapng_section_header_major_version = internal global i32 0, align 4
@hf_pcapng_section_header_minor_version = internal global i32 0, align 4
@hf_pcapng_section_header_section_length = internal global i32 0, align 4
@ei_invalid_byte_order_magic = internal global %struct.expert_field zeroinitializer, align 4
@.str.356 = private unnamed_addr constant [14 x i8] c" (Big-endian)\00", align 1
@.str.357 = private unnamed_addr constant [17 x i8] c" (Little-endian)\00", align 1

; Function Attrs: null_pointer_is_valid sspstrong uwtable
define internal zeroext i1 @dissect_shb_data(ptr noundef %0, ptr noundef %1, ptr noundef %2, i1 noundef zeroext %3, ptr noundef %4) #0 {
  %6 = alloca i1, align 1
  %7 = alloca ptr, align 8
  %8 = alloca ptr, align 8
  %9 = alloca ptr, align 8
  %10 = alloca i8, align 1
  %11 = alloca ptr, align 8
  %12 = alloca i32, align 4
  %13 = alloca ptr, align 8
  %14 = alloca i32, align 4
  store ptr %0, ptr %7, align 8
  store ptr %1, ptr %8, align 8
  store ptr %2, ptr %9, align 8
  %15 = zext i1 %3 to i8
  store i8 %15, ptr %10, align 1
  store ptr %4, ptr %11, align 8
  call void @llvm.lifetime.start.p0(i64 4, ptr %12) #14
  store i32 0, ptr %12, align 4
  call void @llvm.lifetime.start.p0(i64 8, ptr %13) #14
  %16 = load ptr, ptr %7, align 8
  %17 = load i32, ptr @hf_pcapng_section_header_byte_order_magic, align 4
  %18 = load ptr, ptr %9, align 8
  %19 = load i32, ptr %12, align 4
  %20 = call ptr @proto_tree_add_item(ptr noundef %16, i32 noundef %17, ptr noundef %18, i32 noundef %19, i32 noundef 4, i32 noundef 0)
  store ptr %20, ptr %13, align 8
  %21 = load i8, ptr %10, align 1, !range !9, !noundef !10
  %22 = trunc i8 %21 to i1
  br i1 %22, label %23, label %27

23:                                               ; preds = %5
  %24 = load ptr, ptr %8, align 8
  %25 = load ptr, ptr %13, align 8
  %26 = call ptr @expert_add_info(ptr noundef %24, ptr noundef %25, ptr noundef @ei_invalid_byte_order_magic)
  store i1 false, ptr %6, align 1
  store i32 1, ptr %14, align 4
  br label %87

27:                                               ; preds = %5
  %28 = load ptr, ptr %11, align 8
  %29 = getelementptr inbounds nuw %struct.block_data_arg, ptr %28, i32 0, i32 2
  %30 = load ptr, ptr %29, align 8
  %31 = getelementptr inbounds nuw %struct.info, ptr %30, i32 0, i32 5
  %32 = load i32, ptr %31, align 4
  %33 = icmp eq i32 %32, 0
  br i1 %33, label %34, label %36

34:                                               ; preds = %27
  %35 = load ptr, ptr %13, align 8
  call void (ptr, ptr, ...) @proto_item_append_text(ptr noundef %35, ptr noundef @.str.356)
  br label %38

36:                                               ; preds = %27
  %37 = load ptr, ptr %13, align 8
  call void (ptr, ptr, ...) @proto_item_append_text(ptr noundef %37, ptr noundef @.str.357)
  br label %38

38:                                               ; preds = %36, %34
  %39 = load i32, ptr %12, align 4
  %40 = add i32 %39, 4
  store i32 %40, ptr %12, align 4
  %41 = load ptr, ptr %7, align 8
  %42 = load i32, ptr @hf_pcapng_section_header_major_version, align 4
  %43 = load ptr, ptr %9, align 8
  %44 = load i32, ptr %12, align 4
  %45 = load ptr, ptr %11, align 8
  %46 = getelementptr inbounds nuw %struct.block_data_arg, ptr %45, i32 0, i32 2
  %47 = load ptr, ptr %46, align 8
  %48 = getelementptr inbounds nuw %struct.info, ptr %47, i32 0, i32 5
  %49 = load i32, ptr %48, align 4
  %50 = call ptr @proto_tree_add_item(ptr noundef %41, i32 noundef %42, ptr noundef %43, i32 noundef %44, i32 noundef 2, i32 noundef %49)
  %51 = load i32, ptr %12, align 4
  %52 = add i32 %51, 2
  store i32 %52, ptr %12, align 4
  %53 = load ptr, ptr %7, align 8
  %54 = load i32, ptr @hf_pcapng_section_header_minor_version, align 4
  %55 = load ptr, ptr %9, align 8
  %56 = load i32, ptr %12, align 4
  %57 = load ptr, ptr %11, align 8
  %58 = getelementptr inbounds nuw %struct.block_data_arg, ptr %57, i32 0, i32 2
  %59 = load ptr, ptr %58, align 8
  %60 = getelementptr inbounds nuw %struct.info, ptr %59, i32 0, i32 5
  %61 = load i32, ptr %60, align 4
  %62 = call ptr @proto_tree_add_item(ptr noundef %53, i32 noundef %54, ptr noundef %55, i32 noundef %56, i32 noundef 2, i32 noundef %61)
  %63 = load i32, ptr %12, align 4
  %64 = add i32 %63, 2
  store i32 %64, ptr %12, align 4
  %65 = load ptr, ptr %7, align 8
  %66 = load i32, ptr @hf_pcapng_section_header_section_length, align 4
  %67 = load ptr, ptr %9, align 8
  %68 = load i32, ptr %12, align 4
  %69 = load ptr, ptr %11, align 8
  %70 = getelementptr inbounds nuw %struct.block_data_arg, ptr %69, i32 0, i32 2
  %71 = load ptr, ptr %70, align 8
  %72 = getelementptr inbounds nuw %struct.info, ptr %71, i32 0, i32 5
  %73 = load i32, ptr %72, align 4
  %74 = call ptr @proto_tree_add_item(ptr noundef %65, i32 noundef %66, ptr noundef %67, i32 noundef %68, i32 noundef 8, i32 noundef %73)
  %75 = load i32, ptr %12, align 4
  %76 = add i32 %75, 8
  store i32 %76, ptr %12, align 4
  %77 = load ptr, ptr %7, align 8
  %78 = load ptr, ptr %8, align 8
  %79 = load ptr, ptr %9, align 8
  %80 = load i32, ptr %12, align 4
  %81 = load ptr, ptr %11, align 8
  %82 = getelementptr inbounds nuw %struct.block_data_arg, ptr %81, i32 0, i32 2
  %83 = load ptr, ptr %82, align 8
  %84 = getelementptr inbounds nuw %struct.info, ptr %83, i32 0, i32 5
  %85 = load i32, ptr %84, align 4
  %86 = call i32 @dissect_options(ptr noundef %77, ptr noundef %78, i32 noundef 168627466, ptr noundef %79, i32 noundef %80, i32 noundef %85, ptr noundef null)
  store i1 true, ptr %6, align 1
  store i32 1, ptr %14, align 4
  br label %87

87:                                               ; preds = %38, %23
  call void @llvm.lifetime.end.p0(i64 8, ptr %13) #14
  call void @llvm.lifetime.end.p0(i64 4, ptr %12) #14
  %88 = load i1, ptr %6, align 1
  ret i1 %88
}