; Function Attrs: null_pointer_is_valid sspstrong uwtable
define internal fastcc noundef zeroext i1 @dissect_shb_data(ptr noundef %0, ptr noundef %1, ptr noundef %2, i1 noundef zeroext %3, ptr noundef readonly captures(none) %4) unnamed_addr #0 {
  %6 = load i32, ptr @hf_pcapng_section_header_byte_order_magic, align 4
  %7 = tail call ptr @proto_tree_add_item(ptr noundef %0, i32 noundef %6, ptr noundef %2, i32 noundef 0, i32 noundef 4, i32 noundef 0)
  br i1 %3, label %8, label %10

8:                                                ; preds = %5
  %9 = tail call ptr @expert_add_info(ptr noundef %1, ptr noundef %7, ptr noundef nonnull @ei_invalid_byte_order_magic)
  br label %35

10:                                               ; preds = %5
  %11 = getelementptr inbounds nuw i8, ptr %4, i64 16
  %12 = load ptr, ptr %11, align 8
  %13 = getelementptr inbounds nuw i8, ptr %12, i64 20
  %14 = load i32, ptr %13, align 4
  %15 = icmp eq i32 %14, 0
  %.str.356..str.357 = select i1 %15, ptr @.str.356, ptr @.str.357
  tail call void (ptr, ptr, ...) @proto_item_append_text(ptr noundef %7, ptr noundef nonnull %.str.356..str.357)
  %16 = load i32, ptr @hf_pcapng_section_header_major_version, align 4
  %17 = load ptr, ptr %11, align 8
  %18 = getelementptr inbounds nuw i8, ptr %17, i64 20
  %19 = load i32, ptr %18, align 4
  %20 = tail call ptr @proto_tree_add_item(ptr noundef %0, i32 noundef %16, ptr noundef %2, i32 noundef 4, i32 noundef 2, i32 noundef %19)
  %21 = load i32, ptr @hf_pcapng_section_header_minor_version, align 4
  %22 = load ptr, ptr %11, align 8
  %23 = getelementptr inbounds nuw i8, ptr %22, i64 20
  %24 = load i32, ptr %23, align 4
  %25 = tail call ptr @proto_tree_add_item(ptr noundef %0, i32 noundef %21, ptr noundef %2, i32 noundef 6, i32 noundef 2, i32 noundef %24)
  %26 = load i32, ptr @hf_pcapng_section_header_section_length, align 4
  %27 = load ptr, ptr %11, align 8
  %28 = getelementptr inbounds nuw i8, ptr %27, i64 20
  %29 = load i32, ptr %28, align 4
  %30 = tail call ptr @proto_tree_add_item(ptr noundef %0, i32 noundef %26, ptr noundef %2, i32 noundef 8, i32 noundef 8, i32 noundef %29)
  %31 = load ptr, ptr %11, align 8
  %32 = getelementptr inbounds nuw i8, ptr %31, i64 20
  %33 = load i32, ptr %32, align 4
  %34 = tail call i32 @dissect_options(ptr noundef %0, ptr noundef %1, i32 noundef 168627466, ptr noundef %2, i32 noundef 16, i32 noundef %33, ptr noundef null)
  br label %35

35:                                               ; preds = %10, %8
  %.0 = xor i1 %3, true
  ret i1 %.0
}